; ModuleID = '38/174.c'
source_filename = "38/174.c"
target datalayout = "e-m:e-p270:32:32-p271:32:32-p272:64:64-i64:64-f80:128-n8:16:32:64-S128"
target triple = "x86_64-pc-linux-gnu"

@.str = private unnamed_addr constant [3 x i8] c"%d\00", align 1
@.str.1 = private unnamed_addr constant [4 x i8] c"%lf\00", align 1
@.str.2 = private unnamed_addr constant [6 x i8] c"%.5f\0A\00", align 1

; Function Attrs: noinline nounwind uwtable
define dso_local i32 @main() #0 {
  %1 = alloca i32, align 4
  %2 = alloca i32, align 4
  %3 = alloca i32, align 4
  %4 = alloca i32, align 4
  %5 = alloca i32, align 4
  %6 = alloca double, align 8
  %7 = alloca double, align 8
  %8 = alloca double, align 8
  %9 = alloca [1000 x double], align 16
  store i32 0, i32* %1, align 4
  %10 = bitcast [1000 x double]* %9 to i8*
  call void @llvm.memset.p0i8.i64(i8* align 16 %10, i8 0, i64 8000, i1 false)
  %11 = call i32 (i8*, ...) @__isoc99_scanf(i8* getelementptr inbounds ([3 x i8], [3 x i8]* @.str, i64 0, i64 0), i32* %2)
  store i32 0, i32* %4, align 4
  br label %12

12:                                               ; preds = %69, %0
  %13 = load i32, i32* %4, align 4
  %14 = load i32, i32* %2, align 4
  %15 = icmp slt i32 %13, %14
  br i1 %15, label %16, label %72

16:                                               ; preds = %12
  store double 0.000000e+00, double* %6, align 8
  store double 0.000000e+00, double* %7, align 8
  store double 0.000000e+00, double* %8, align 8
  %17 = call i32 (i8*, ...) @__isoc99_scanf(i8* getelementptr inbounds ([3 x i8], [3 x i8]* @.str, i64 0, i64 0), i32* %3)
  store i32 0, i32* %5, align 4
  br label %18

18:                                               ; preds = %35, %16
  %19 = load i32, i32* %5, align 4
  %20 = load i32, i32* %3, align 4
  %21 = icmp slt i32 %19, %20
  br i1 %21, label %22, label %38

22:                                               ; preds = %18
  %23 = getelementptr inbounds [1000 x double], [1000 x double]* %9, i64 0, i64 0
  %24 = load i32, i32* %5, align 4
  %25 = sext i32 %24 to i64
  %26 = getelementptr inbounds double, double* %23, i64 %25
  %27 = call i32 (i8*, ...) @__isoc99_scanf(i8* getelementptr inbounds ([4 x i8], [4 x i8]* @.str.1, i64 0, i64 0), double* %26)
  %28 = load double, double* %6, align 8
  %29 = getelementptr inbounds [1000 x double], [1000 x double]* %9, i64 0, i64 0
  %30 = load i32, i32* %5, align 4
  %31 = sext i32 %30 to i64
  %32 = getelementptr inbounds double, double* %29, i64 %31
  %33 = load double, double* %32, align 8
  %34 = fadd double %28, %33
  store double %34, double* %6, align 8
  br label %35

35:                                               ; preds = %22
  %36 = load i32, i32* %5, align 4
  %37 = add nsw i32 %36, 1
  store i32 %37, i32* %5, align 4
  br label %18

38:                                               ; preds = %18
  %39 = load double, double* %6, align 8
  %40 = load i32, i32* %3, align 4
  %41 = sitofp i32 %40 to double
  %42 = fdiv double %39, %41
  store double %42, double* %7, align 8
  store i32 0, i32* %5, align 4
  br label %43

43:                                               ; preds = %58, %38
  %44 = load i32, i32* %5, align 4
  %45 = load i32, i32* %3, align 4
  %46 = icmp slt i32 %44, %45
  br i1 %46, label %47, label %61

47:                                               ; preds = %43
  %48 = load double, double* %8, align 8
  %49 = getelementptr inbounds [1000 x double], [1000 x double]* %9, i64 0, i64 0
  %50 = load i32, i32* %5, align 4
  %51 = sext i32 %50 to i64
  %52 = getelementptr inbounds double, double* %49, i64 %51
  %53 = load double, double* %52, align 8
  %54 = load double, double* %7, align 8
  %55 = fsub double %53, %54
  %56 = call double @pow(double %55, double 2.000000e+00) #4
  %57 = fadd double %48, %56
  store double %57, double* %8, align 8
  br label %58

58:                                               ; preds = %47
  %59 = load i32, i32* %5, align 4
  %60 = add nsw i32 %59, 1
  store i32 %60, i32* %5, align 4
  br label %43

61:                                               ; preds = %43
  %62 = load double, double* %8, align 8
  %63 = load i32, i32* %3, align 4
  %64 = sitofp i32 %63 to double
  %65 = fdiv double %62, %64
  %66 = call double @sqrt(double %65) #4
  store double %66, double* %8, align 8
  %67 = load double, double* %8, align 8
  %68 = call i32 (i8*, ...) @printf(i8* getelementptr inbounds ([6 x i8], [6 x i8]* @.str.2, i64 0, i64 0), double %67)
  br label %69

69:                                               ; preds = %61
  %70 = load i32, i32* %4, align 4
  %71 = add nsw i32 %70, 1
  store i32 %71, i32* %4, align 4
  br label %12

72:                                               ; preds = %12
  ret i32 0
}

; Function Attrs: argmemonly nounwind willreturn
declare void @llvm.memset.p0i8.i64(i8* nocapture writeonly, i8, i64, i1 immarg) #1

declare dso_local i32 @__isoc99_scanf(i8*, ...) #2

; Function Attrs: nounwind
declare dso_local double @pow(double, double) #3

; Function Attrs: nounwind
declare dso_local double @sqrt(double) #3

declare dso_local i32 @printf(i8*, ...) #2


!llvm.module.flags = !{!0}
!llvm.ident = !{!1}

!0 = !{i32 1, !"wchar_size", i32 4}
!1 = !{!"clang version 10.0.0-4ubuntu1 "}
